target datalayout = "e-m:e-p270:32:32-p271:32:32-p272:64:64-i64:64-i128:128-f80:128-n8:16:32:64-S128"
target triple = "x86_64-pc-linux-gnu"

%struct.rb_ractor_local_storage_type = type { ptr, ptr }
%struct.rb_ractor_local_key_struct = type { ptr, ptr }

; Function Attrs: nounwind sspstrong uwtable
define internal i32 @ractor_local_storage_mark_i(i64 noundef %0, i64 noundef %1, i64 noundef %2) #0 {
  %4 = alloca i64, align 8
  %5 = alloca i64, align 8
  %6 = alloca i64, align 8
  %7 = alloca ptr, align 8
  store i64 %0, ptr %4, align 8, !tbaa !16
  store i64 %1, ptr %5, align 8, !tbaa !16
  store i64 %2, ptr %6, align 8, !tbaa !16
  call void @llvm.lifetime.start.p0(i64 8, ptr %7) #16
  %8 = load i64, ptr %4, align 8, !tbaa !16
  %9 = inttoptr i64 %8 to ptr
  store ptr %9, ptr %7, align 8, !tbaa !160
  %10 = load ptr, ptr %7, align 8, !tbaa !160
  %11 = getelementptr inbounds nuw %struct.rb_ractor_local_key_struct, ptr %10, i32 0, i32 0
  %12 = load ptr, ptr %11, align 8, !tbaa !162
  %13 = getelementptr inbounds nuw %struct.rb_ractor_local_storage_type, ptr %12, i32 0, i32 0
  %14 = load ptr, ptr %13, align 8, !tbaa !222
  %15 = icmp ne ptr %14, null
  br i1 %15, label %16, label %24

16:                                               ; preds = %3
  %17 = load ptr, ptr %7, align 8, !tbaa !160
  %18 = getelementptr inbounds nuw %struct.rb_ractor_local_key_struct, ptr %17, i32 0, i32 0
  %19 = load ptr, ptr %18, align 8, !tbaa !162
  %20 = getelementptr inbounds nuw %struct.rb_ractor_local_storage_type, ptr %19, i32 0, i32 0
  %21 = load ptr, ptr %20, align 8, !tbaa !222
  %22 = load i64, ptr %5, align 8, !tbaa !16
  %23 = inttoptr i64 %22 to ptr
  call void %21(ptr noundef %23)
  br label %24

24:                                               ; preds = %16, %3
  call void @llvm.lifetime.end.p0(i64 8, ptr %7) #16
  ret i32 0
}