; Function Attrs: nounwind sspstrong uwtable
define internal noundef i32 @ractor_local_storage_mark_i(i64 noundef %0, i64 noundef %1, i64 %2) #0 {
  %4 = inttoptr i64 %0 to ptr
  %5 = load ptr, ptr %4, align 8, !tbaa !177
  %6 = load ptr, ptr %5, align 8, !tbaa !234
  %.not = icmp eq ptr %6, null
  br i1 %.not, label %9, label %7

7:                                                ; preds = %3
  %8 = inttoptr i64 %1 to ptr
  tail call void %6(ptr noundef %8) #19
  br label %9

9:                                                ; preds = %7, %3
  ret i32 0
}